; Function Attrs: nounwind uwtable
define dso_local range(i64 0, 2) i64 @arraycontains(ptr noundef readonly captures(none) %0) local_unnamed_addr #0 {
  %2 = getelementptr inbounds nuw i8, ptr %0, i64 32
  %3 = load i64, ptr %2, align 8
  %4 = tail call ptr @DatumGetAnyArrayP(i64 noundef %3) #18
  %5 = getelementptr inbounds nuw i8, ptr %0, i64 48
  %6 = load i64, ptr %5, align 8
  %7 = tail call ptr @DatumGetAnyArrayP(i64 noundef %6) #18
  %8 = getelementptr inbounds nuw i8, ptr %0, i64 24
  %9 = load i32, ptr %8, align 8
  %10 = load ptr, ptr %0, align 8
  %11 = getelementptr inbounds nuw i8, ptr %10, i64 24
  %12 = tail call fastcc zeroext i1 @array_contain_compare(ptr noundef %7, ptr noundef %4, i32 noundef %9, i1 noundef zeroext true, ptr noundef nonnull %11)
  %13 = load i32, ptr %4, align 4
  %14 = icmp eq i32 %13, -1
  br i1 %14, label %19, label %15

15:                                               ; preds = %1
  %16 = load i64, ptr %2, align 8
  %17 = inttoptr i64 %16 to ptr
  %.not = icmp eq ptr %4, %17
  br i1 %.not, label %19, label %18

18:                                               ; preds = %15
  tail call void @pfree(ptr noundef nonnull %4) #18
  br label %19

19:                                               ; preds = %1, %18, %15
  %20 = load i32, ptr %7, align 4
  %21 = icmp eq i32 %20, -1
  br i1 %21, label %26, label %22

22:                                               ; preds = %19
  %23 = load i64, ptr %5, align 8
  %24 = inttoptr i64 %23 to ptr
  %.not16 = icmp eq ptr %7, %24
  br i1 %.not16, label %26, label %25

25:                                               ; preds = %22
  tail call void @pfree(ptr noundef nonnull %7) #18
  br label %26

26:                                               ; preds = %22, %25, %19
  %27 = zext i1 %12 to i64
  ret i64 %27
}